target datalayout = "e-m:e-p270:32:32-p271:32:32-p272:64:64-i64:64-i128:128-f80:128-n8:16:32:64-S128"
target triple = "x86_64-pc-linux-gnu"

%struct.nstime_t = type { i64, i32 }
%struct._packet_info = type { ptr, ptr, i32, i32, %struct.nstime_t, %struct.nstime_t, %struct.nstime_t, i32, ptr, ptr, ptr, ptr, %struct._address, %struct._address, %struct._address, %struct._address, %struct._address, %struct._address, i32, ptr, i32, %struct.anon, i32, i32, i32, i32, ptr, i32, ptr, ptr, i16, i16, i32, i32, i16, i32, i32, ptr, ptr, ptr, i8, i8, i16, i16, i16, i32, i16, i16, ptr, ptr, ptr, ptr, ptr, i32 }
%struct._address = type { i32, i32, ptr, ptr }
%struct.anon = type { i8, [3 x i8] }
%struct._frame_data = type { i32, i32, i32, i32, i64, ptr, ptr, ptr, i16, i16, %struct.nstime_t, %struct.nstime_t, i32, i32, i8 }

@ett_snmp = internal global i32 0, align 4
@proto_snmp = internal global i32 0, align 4
@snmp_handle = internal global ptr null, align 8

; Function Attrs: nounwind uwtable
define internal i32 @dissect_snmp(ptr noundef %0, ptr noundef %1, ptr noundef %2, ptr noundef %3) #0 {
  %5 = alloca i32, align 4
  %6 = alloca ptr, align 8
  %7 = alloca ptr, align 8
  %8 = alloca ptr, align 8
  %9 = alloca ptr, align 8
  %10 = alloca i32, align 4
  %11 = alloca i8, align 1
  %12 = alloca i8, align 1
  %13 = alloca i32, align 4
  %14 = alloca i32, align 4
  %15 = alloca i8, align 1
  %16 = alloca ptr, align 8
  store ptr %0, ptr %6, align 8
  store ptr %1, ptr %7, align 8
  store ptr %2, ptr %8, align 8
  store ptr %3, ptr %9, align 8
  %17 = load ptr, ptr %6, align 8
  %18 = call i32 @get_ber_identifier(ptr noundef %17, i32 noundef 0, ptr noundef %11, ptr noundef %12, ptr noundef %13)
  store i32 %18, ptr %10, align 4
  %19 = load i8, ptr %11, align 1
  %20 = sext i8 %19 to i32
  %21 = icmp ne i32 %20, 0
  br i1 %21, label %25, label %22

22:                                               ; preds = %4
  %23 = load i32, ptr %13, align 4
  %24 = icmp ne i32 %23, 16
  br i1 %24, label %25, label %26

25:                                               ; preds = %22, %4
  store i32 0, ptr %5, align 4
  br label %133

26:                                               ; preds = %22
  %27 = load ptr, ptr %6, align 8
  %28 = load i32, ptr %10, align 4
  %29 = call i32 @get_ber_length(ptr noundef %27, i32 noundef %28, ptr noundef %14, ptr noundef %15)
  store i32 %29, ptr %10, align 4
  %30 = load ptr, ptr %7, align 8
  %31 = getelementptr inbounds %struct._packet_info, ptr %30, i32 0, i32 20
  %32 = load i32, ptr %31, align 8
  %33 = icmp ne i32 %32, 0
  br i1 %33, label %63, label %34

34:                                               ; preds = %26
  %35 = load ptr, ptr %7, align 8
  %36 = getelementptr inbounds %struct._packet_info, ptr %35, i32 0, i32 21
  %37 = load i8, ptr %36, align 4
  %38 = and i8 %37, 1
  %39 = zext i8 %38 to i32
  %40 = icmp ne i32 %39, 0
  br i1 %40, label %63, label %41

41:                                               ; preds = %34
  %42 = load ptr, ptr %7, align 8
  %43 = getelementptr inbounds %struct._packet_info, ptr %42, i32 0, i32 22
  %44 = load i32, ptr %43, align 8
  %45 = icmp eq i32 %44, 3
  br i1 %45, label %46, label %54

46:                                               ; preds = %41
  %47 = load i32, ptr %14, align 4
  %48 = load ptr, ptr %6, align 8
  %49 = load i32, ptr %10, align 4
  %50 = call i32 @tvb_reported_length_remaining(ptr noundef %48, i32 noundef %49)
  %51 = icmp ugt i32 %47, %50
  br i1 %51, label %52, label %53

52:                                               ; preds = %46
  store i32 0, ptr %5, align 4
  br label %133

53:                                               ; preds = %46
  br label %62

54:                                               ; preds = %41
  %55 = load i32, ptr %14, align 4
  %56 = load ptr, ptr %6, align 8
  %57 = load i32, ptr %10, align 4
  %58 = call i32 @tvb_reported_length_remaining(ptr noundef %56, i32 noundef %57)
  %59 = icmp ne i32 %55, %58
  br i1 %59, label %60, label %61

60:                                               ; preds = %54
  store i32 0, ptr %5, align 4
  br label %133

61:                                               ; preds = %54
  br label %62

62:                                               ; preds = %61, %53
  br label %63

63:                                               ; preds = %62, %34, %26
  %64 = load ptr, ptr %6, align 8
  %65 = load i32, ptr %10, align 4
  %66 = call i32 @get_ber_identifier(ptr noundef %64, i32 noundef %65, ptr noundef %11, ptr noundef %12, ptr noundef %13)
  %67 = load i8, ptr %11, align 1
  %68 = sext i8 %67 to i32
  %69 = icmp ne i32 %68, 0
  br i1 %69, label %73, label %70

70:                                               ; preds = %63
  %71 = load i32, ptr %13, align 4
  %72 = icmp ne i32 %71, 2
  br i1 %72, label %73, label %74

73:                                               ; preds = %70, %63
  store i32 0, ptr %5, align 4
  br label %133

74:                                               ; preds = %70
  %75 = load ptr, ptr %7, align 8
  %76 = getelementptr inbounds %struct._packet_info, ptr %75, i32 0, i32 24
  %77 = load i32, ptr %76, align 8
  %78 = icmp eq i32 %77, 161
  br i1 %78, label %79, label %126

79:                                               ; preds = %74
  %80 = load ptr, ptr %7, align 8
  %81 = getelementptr inbounds %struct._packet_info, ptr %80, i32 0, i32 8
  %82 = load ptr, ptr %81, align 8
  %83 = getelementptr inbounds %struct._frame_data, ptr %82, i32 0, i32 0
  %84 = load i32, ptr %83, align 8
  %85 = load ptr, ptr %7, align 8
  %86 = getelementptr inbounds %struct._packet_info, ptr %85, i32 0, i32 16
  %87 = load ptr, ptr %7, align 8
  %88 = getelementptr inbounds %struct._packet_info, ptr %87, i32 0, i32 17
  %89 = load ptr, ptr %7, align 8
  %90 = getelementptr inbounds %struct._packet_info, ptr %89, i32 0, i32 22
  %91 = load i32, ptr %90, align 8
  %92 = call i32 @conversation_pt_to_conversation_type(i32 noundef %91)
  %93 = load ptr, ptr %7, align 8
  %94 = getelementptr inbounds %struct._packet_info, ptr %93, i32 0, i32 23
  %95 = load i32, ptr %94, align 4
  %96 = call ptr @find_conversation(i32 noundef %84, ptr noundef %86, ptr noundef %88, i32 noundef %92, i32 noundef %95, i32 noundef 0, i32 noundef 131072)
  store ptr %96, ptr %16, align 8
  %97 = load ptr, ptr %16, align 8
  %98 = icmp eq ptr %97, null
  br i1 %98, label %107, label %99

99:                                               ; preds = %79
  %100 = load ptr, ptr %16, align 8
  %101 = load ptr, ptr %7, align 8
  %102 = getelementptr inbounds %struct._packet_info, ptr %101, i32 0, i32 3
  %103 = load i32, ptr %102, align 4
  %104 = call ptr @conversation_get_dissector(ptr noundef %100, i32 noundef %103)
  %105 = load ptr, ptr @snmp_handle, align 8
  %106 = icmp ne ptr %104, %105
  br i1 %106, label %107, label %125

107:                                              ; preds = %99, %79
  %108 = load ptr, ptr %7, align 8
  %109 = getelementptr inbounds %struct._packet_info, ptr %108, i32 0, i32 3
  %110 = load i32, ptr %109, align 4
  %111 = load ptr, ptr %7, align 8
  %112 = getelementptr inbounds %struct._packet_info, ptr %111, i32 0, i32 16
  %113 = load ptr, ptr %7, align 8
  %114 = getelementptr inbounds %struct._packet_info, ptr %113, i32 0, i32 17
  %115 = load ptr, ptr %7, align 8
  %116 = getelementptr inbounds %struct._packet_info, ptr %115, i32 0, i32 22
  %117 = load i32, ptr %116, align 8
  %118 = call i32 @conversation_pt_to_conversation_type(i32 noundef %117)
  %119 = load ptr, ptr %7, align 8
  %120 = getelementptr inbounds %struct._packet_info, ptr %119, i32 0, i32 23
  %121 = load i32, ptr %120, align 4
  %122 = call nonnull ptr @conversation_new(i32 noundef %110, ptr noundef %112, ptr noundef %114, i32 noundef %118, i32 noundef %121, i32 noundef 0, i32 noundef 2)
  store ptr %122, ptr %16, align 8
  %123 = load ptr, ptr %16, align 8
  %124 = load ptr, ptr @snmp_handle, align 8
  call void @conversation_set_dissector(ptr noundef %123, ptr noundef %124)
  br label %125

125:                                              ; preds = %107, %99
  br label %126

126:                                              ; preds = %125, %74
  %127 = load ptr, ptr %6, align 8
  %128 = load ptr, ptr %7, align 8
  %129 = load ptr, ptr %8, align 8
  %130 = load i32, ptr @proto_snmp, align 4
  %131 = load i32, ptr @ett_snmp, align 4
  %132 = call i32 @dissect_snmp_pdu(ptr noundef %127, i32 noundef 0, ptr noundef %128, ptr noundef %129, i32 noundef %130, i32 noundef %131, i32 noundef 0)
  store i32 %132, ptr %5, align 4
  br label %133

133:                                              ; preds = %126, %73, %60, %52, %25
  %134 = load i32, ptr %5, align 4
  ret i32 %134
}