; Function Attrs: nounwind uwtable
define internal i32 @dissect_snmp(ptr noundef %0, ptr noundef %1, ptr noundef %2, ptr readnone captures(none) %3) #0 {
  %5 = alloca i8, align 1
  %6 = alloca i8, align 1
  %7 = alloca i32, align 4
  %8 = alloca i32, align 4
  %9 = alloca i8, align 1
  %10 = call i32 @get_ber_identifier(ptr noundef %0, i32 noundef 0, ptr noundef nonnull %5, ptr noundef nonnull %6, ptr noundef nonnull %7) #11
  %11 = load i8, ptr %5, align 1
  %12 = icmp ne i8 %11, 0
  %13 = load i32, ptr %7, align 4
  %14 = icmp ne i32 %13, 16
  %or.cond = select i1 %12, i1 true, i1 %14
  br i1 %or.cond, label %72, label %15

15:                                               ; preds = %4
  %16 = call i32 @get_ber_length(ptr noundef %0, i32 noundef %10, ptr noundef nonnull %8, ptr noundef nonnull %9) #11
  %17 = getelementptr inbounds nuw i8, ptr %1, i64 272
  %18 = load i32, ptr %17, align 8
  %.not = icmp eq i32 %18, 0
  br i1 %.not, label %19, label %32

19:                                               ; preds = %15
  %20 = getelementptr inbounds nuw i8, ptr %1, i64 276
  %21 = load i8, ptr %20, align 4
  %22 = and i8 %21, 1
  %.not34 = icmp eq i8 %22, 0
  br i1 %.not34, label %23, label %32

23:                                               ; preds = %19
  %24 = getelementptr inbounds nuw i8, ptr %1, i64 280
  %25 = load i32, ptr %24, align 8
  %26 = icmp eq i32 %25, 3
  %27 = load i32, ptr %8, align 4
  %28 = call i32 @tvb_reported_length_remaining(ptr noundef %0, i32 noundef %16) #11
  br i1 %26, label %29, label %31

29:                                               ; preds = %23
  %30 = icmp ugt i32 %27, %28
  br i1 %30, label %72, label %32

31:                                               ; preds = %23
  %.not35 = icmp eq i32 %27, %28
  br i1 %.not35, label %32, label %72

32:                                               ; preds = %29, %31, %19, %15
  %33 = call i32 @get_ber_identifier(ptr noundef %0, i32 noundef %16, ptr noundef nonnull %5, ptr noundef nonnull %6, ptr noundef nonnull %7) #11
  %34 = load i8, ptr %5, align 1
  %35 = icmp ne i8 %34, 0
  %36 = load i32, ptr %7, align 4
  %37 = icmp ne i32 %36, 2
  %or.cond3 = select i1 %35, i1 true, i1 %37
  br i1 %or.cond3, label %72, label %38

38:                                               ; preds = %32
  %39 = getelementptr inbounds nuw i8, ptr %1, i64 288
  %40 = load i32, ptr %39, align 8
  %41 = icmp eq i32 %40, 161
  br i1 %41, label %42, label %68

42:                                               ; preds = %38
  %43 = getelementptr inbounds nuw i8, ptr %1, i64 80
  %44 = load ptr, ptr %43, align 8
  %45 = load i32, ptr %44, align 8
  %46 = getelementptr inbounds nuw i8, ptr %1, i64 208
  %47 = getelementptr inbounds nuw i8, ptr %1, i64 232
  %48 = getelementptr inbounds nuw i8, ptr %1, i64 280
  %49 = load i32, ptr %48, align 8
  %50 = call i32 @conversation_pt_to_conversation_type(i32 noundef %49) #11
  %51 = getelementptr inbounds nuw i8, ptr %1, i64 284
  %52 = load i32, ptr %51, align 4
  %53 = call ptr @find_conversation(i32 noundef %45, ptr noundef nonnull %46, ptr noundef nonnull %47, i32 noundef %50, i32 noundef %52, i32 noundef 0, i32 noundef 131072) #11
  %54 = icmp eq ptr %53, null
  br i1 %54, label %60, label %55

55:                                               ; preds = %42
  %56 = getelementptr inbounds nuw i8, ptr %1, i64 20
  %57 = load i32, ptr %56, align 4
  %58 = call ptr @conversation_get_dissector(ptr noundef nonnull %53, i32 noundef %57) #11
  %59 = load ptr, ptr @snmp_handle, align 8
  %.not36 = icmp eq ptr %58, %59
  br i1 %.not36, label %68, label %60

60:                                               ; preds = %55, %42
  %61 = getelementptr inbounds nuw i8, ptr %1, i64 20
  %62 = load i32, ptr %61, align 4
  %63 = load i32, ptr %48, align 8
  %64 = call i32 @conversation_pt_to_conversation_type(i32 noundef %63) #11
  %65 = load i32, ptr %51, align 4
  %66 = call nonnull ptr @conversation_new(i32 noundef %62, ptr noundef nonnull %46, ptr noundef nonnull %47, i32 noundef %64, i32 noundef %65, i32 noundef 0, i32 noundef 2) #11
  %67 = load ptr, ptr @snmp_handle, align 8
  call void @conversation_set_dissector(ptr noundef nonnull %66, ptr noundef %67) #11
  br label %68

68:                                               ; preds = %55, %60, %38
  %69 = load i32, ptr @proto_snmp, align 4
  %70 = load i32, ptr @ett_snmp, align 4
  %71 = call i32 @dissect_snmp_pdu(ptr noundef %0, i32 noundef 0, ptr noundef nonnull %1, ptr noundef %2, i32 noundef %69, i32 noundef %70, i32 noundef 0)
  br label %72

72:                                               ; preds = %32, %31, %29, %4, %68
  %.0 = phi i32 [ %71, %68 ], [ 0, %4 ], [ 0, %29 ], [ 0, %31 ], [ 0, %32 ]
  ret i32 %.0
}